target datalayout = "e-m:e-p270:32:32-p271:32:32-p272:64:64-i64:64-i128:128-f80:128-n8:16:32:64-S128"
target triple = "x86_64-pc-linux-gnu"

%struct.persist_msg_t = type { ptr, ptr, i16 }
%struct.dbd_list_msg_t = type { ptr, i32 }
%struct.persist_rc_msg_t = type { ptr, i16, i32, i16 }
%struct.dbd_cond_msg_t = type { ptr }

@plugin_type = dso_local constant [28 x i8] c"accounting_storage/slurmdbd\00", align 16
@.str.7 = private unnamed_addr constant [3 x i8] c"%s\00", align 1
@.str.24 = private unnamed_addr constant [11 x i8] c"%s: %s: %s\00", align 1
@.str.78 = private unnamed_addr constant [30 x i8] c"DBD_GET_JOBS_COND failure: %s\00", align 1
@__func__.jobacct_storage_p_get_jobs_cond = private unnamed_addr constant [32 x i8] c"jobacct_storage_p_get_jobs_cond\00", align 1
@.str.79 = private unnamed_addr constant [35 x i8] c"response type not DBD_GOT_JOBS: %u\00", align 1

; Function Attrs: nounwind uwtable
define dso_local ptr @jobacct_storage_p_get_jobs_cond(ptr noundef %0, i32 noundef %1, ptr noundef %2) #0 {
  %4 = alloca ptr, align 8
  %5 = alloca i32, align 4
  %6 = alloca ptr, align 8
  %7 = alloca %struct.persist_msg_t, align 8
  %8 = alloca %struct.persist_msg_t, align 8
  %9 = alloca %struct.dbd_cond_msg_t, align 8
  %10 = alloca ptr, align 8
  %11 = alloca i32, align 4
  %12 = alloca ptr, align 8
  %13 = alloca ptr, align 8
  store ptr %0, ptr %4, align 8
  store i32 %1, ptr %5, align 4
  store ptr %2, ptr %6, align 8
  call void @llvm.lifetime.start.p0(i64 24, ptr %7) #9
  call void @llvm.memset.p0.i64(ptr align 8 %7, i8 0, i64 24, i1 false)
  call void @llvm.lifetime.start.p0(i64 24, ptr %8) #9
  call void @llvm.memset.p0.i64(ptr align 8 %8, i8 0, i64 24, i1 false)
  call void @llvm.lifetime.start.p0(i64 8, ptr %9) #9
  call void @llvm.lifetime.start.p0(i64 8, ptr %10) #9
  call void @llvm.lifetime.start.p0(i64 4, ptr %11) #9
  call void @llvm.lifetime.start.p0(i64 8, ptr %12) #9
  store ptr null, ptr %12, align 8
  call void @llvm.memset.p0.i64(ptr align 8 %9, i8 0, i64 8, i1 false)
  %14 = load ptr, ptr %6, align 8
  %15 = getelementptr inbounds nuw %struct.dbd_cond_msg_t, ptr %9, i32 0, i32 0
  store ptr %14, ptr %15, align 8
  %16 = getelementptr inbounds nuw %struct.persist_msg_t, ptr %7, i32 0, i32 2
  store i16 1444, ptr %16, align 8
  %17 = load ptr, ptr %4, align 8
  %18 = getelementptr inbounds nuw %struct.persist_msg_t, ptr %7, i32 0, i32 0
  store ptr %17, ptr %18, align 8
  %19 = getelementptr inbounds nuw %struct.persist_msg_t, ptr %7, i32 0, i32 1
  store ptr %9, ptr %19, align 8
  %20 = call i32 @dbd_conn_send_recv(i16 noundef zeroext 11008, ptr noundef %7, ptr noundef %8)
  store i32 %20, ptr %11, align 4
  %21 = load i32, ptr %11, align 4
  %22 = icmp ne i32 %21, 0
  br i1 %22, label %23, label %27

23:                                               ; preds = %3
  %24 = load i32, ptr %11, align 4
  %25 = call ptr @slurm_strerror(i32 noundef %24)
  %26 = call i32 (ptr, ...) @slurm_error(ptr noundef @.str.78, ptr noundef %25)
  br label %99

27:                                               ; preds = %3
  %28 = getelementptr inbounds nuw %struct.persist_msg_t, ptr %8, i32 0, i32 2
  %29 = load i16, ptr %28, align 8
  %30 = zext i16 %29 to i32
  %31 = icmp eq i32 %30, 1433
  br i1 %31, label %32, label %65

32:                                               ; preds = %27
  call void @llvm.lifetime.start.p0(i64 8, ptr %13) #9
  %33 = getelementptr inbounds nuw %struct.persist_msg_t, ptr %8, i32 0, i32 1
  %34 = load ptr, ptr %33, align 8
  store ptr %34, ptr %13, align 8
  %35 = load ptr, ptr %13, align 8
  %36 = getelementptr inbounds nuw %struct.persist_rc_msg_t, ptr %35, i32 0, i32 2
  %37 = load i32, ptr %36, align 4
  %38 = icmp eq i32 %37, 0
  br i1 %38, label %39, label %54

39:                                               ; preds = %32
  br label %40

40:                                               ; preds = %39
  br label %41

41:                                               ; preds = %40
  %42 = call i32 @slurm_get_log_level()
  %43 = icmp sge i32 %42, 3
  br i1 %43, label %44, label %48

44:                                               ; preds = %41
  %45 = load ptr, ptr %13, align 8
  %46 = getelementptr inbounds nuw %struct.persist_rc_msg_t, ptr %45, i32 0, i32 0
  %47 = load ptr, ptr %46, align 8
  call void (i32, ptr, ...) @slurm_log_var(i32 noundef 3, ptr noundef @.str.24, ptr noundef @plugin_type, ptr noundef @__func__.jobacct_storage_p_get_jobs_cond, ptr noundef %47)
  br label %48

48:                                               ; preds = %44, %41
  br label %49

49:                                               ; preds = %48
  br label %50

50:                                               ; preds = %49
  br label %51

51:                                               ; preds = %50
  br label %52

52:                                               ; preds = %51
  %53 = call ptr @slurm_list_create(ptr noundef null)
  store ptr %53, ptr %12, align 8
  br label %63

54:                                               ; preds = %32
  %55 = load ptr, ptr %13, align 8
  %56 = getelementptr inbounds nuw %struct.persist_rc_msg_t, ptr %55, i32 0, i32 2
  %57 = load i32, ptr %56, align 4
  %58 = call ptr @__errno_location() #10
  store i32 %57, ptr %58, align 4
  %59 = load ptr, ptr %13, align 8
  %60 = getelementptr inbounds nuw %struct.persist_rc_msg_t, ptr %59, i32 0, i32 0
  %61 = load ptr, ptr %60, align 8
  %62 = call i32 (ptr, ...) @slurm_error(ptr noundef @.str.7, ptr noundef %61)
  br label %63

63:                                               ; preds = %54, %52
  %64 = load ptr, ptr %13, align 8
  call void @slurm_persist_free_rc_msg(ptr noundef %64)
  call void @llvm.lifetime.end.p0(i64 8, ptr %13) #9
  br label %98

65:                                               ; preds = %27
  %66 = getelementptr inbounds nuw %struct.persist_msg_t, ptr %8, i32 0, i32 2
  %67 = load i16, ptr %66, align 8
  %68 = zext i16 %67 to i32
  %69 = icmp ne i32 %68, 1421
  br i1 %69, label %70, label %75

70:                                               ; preds = %65
  %71 = getelementptr inbounds nuw %struct.persist_msg_t, ptr %8, i32 0, i32 2
  %72 = load i16, ptr %71, align 8
  %73 = zext i16 %72 to i32
  %74 = call i32 (ptr, ...) @slurm_error(ptr noundef @.str.79, i32 noundef %73)
  br label %97

75:                                               ; preds = %65
  %76 = getelementptr inbounds nuw %struct.persist_msg_t, ptr %8, i32 0, i32 1
  %77 = load ptr, ptr %76, align 8
  store ptr %77, ptr %10, align 8
  %78 = load ptr, ptr %10, align 8
  %79 = getelementptr inbounds nuw %struct.dbd_list_msg_t, ptr %78, i32 0, i32 0
  %80 = load ptr, ptr %79, align 8
  store ptr %80, ptr %12, align 8
  %81 = load ptr, ptr %10, align 8
  %82 = getelementptr inbounds nuw %struct.dbd_list_msg_t, ptr %81, i32 0, i32 0
  store ptr null, ptr %82, align 8
  %83 = load ptr, ptr %12, align 8
  %84 = icmp ne ptr %83, null
  br i1 %84, label %95, label %85

85:                                               ; preds = %75
  %86 = load ptr, ptr %10, align 8
  %87 = getelementptr inbounds nuw %struct.dbd_list_msg_t, ptr %86, i32 0, i32 1
  %88 = load i32, ptr %87, align 8
  %89 = call ptr @__errno_location() #10
  store i32 %88, ptr %89, align 4
  %90 = load ptr, ptr %10, align 8
  %91 = getelementptr inbounds nuw %struct.dbd_list_msg_t, ptr %90, i32 0, i32 1
  %92 = load i32, ptr %91, align 8
  %93 = call ptr @slurm_strerror(i32 noundef %92)
  %94 = call i32 (ptr, ...) @slurm_error(ptr noundef @.str.7, ptr noundef %93)
  br label %95

95:                                               ; preds = %85, %75
  %96 = load ptr, ptr %10, align 8
  call void @slurm_slurmdbd_free_list_msg(ptr noundef %96)
  br label %97

97:                                               ; preds = %95, %70
  br label %98

98:                                               ; preds = %97, %63
  br label %99

99:                                               ; preds = %98, %23
  %100 = load ptr, ptr %12, align 8
  call void @llvm.lifetime.end.p0(i64 8, ptr %12) #9
  call void @llvm.lifetime.end.p0(i64 4, ptr %11) #9
  call void @llvm.lifetime.end.p0(i64 8, ptr %10) #9
  call void @llvm.lifetime.end.p0(i64 8, ptr %9) #9
  call void @llvm.lifetime.end.p0(i64 24, ptr %8) #9
  call void @llvm.lifetime.end.p0(i64 24, ptr %7) #9
  ret ptr %100
}